target datalayout = "e-m:e-p270:32:32-p271:32:32-p272:64:64-i64:64-f80:128-n8:16:32:64-S128"
target triple = "x86_64-pc-linux-gnu"

@.str = private unnamed_addr constant [4 x i8] c"%d \00", align 1
@.str.1 = private unnamed_addr constant [3 x i8] c"%d\00", align 1
@.str.2 = private unnamed_addr constant [6 x i8] c"%d %d\00", align 1

; Function Attrs: noinline nounwind uwtable
define dso_local void @px(i32* %0, i32 %1) #0 {
  %3 = alloca i32*, align 8
  %4 = alloca i32, align 4
  %5 = alloca i32, align 4
  %6 = alloca i32, align 4
  %7 = alloca i32, align 4
  store i32* %0, i32** %3, align 8
  store i32 %1, i32* %4, align 4
  store i32 0, i32* %5, align 4
  br label %8

8:                                                ; preds = %57, %2
  %9 = load i32, i32* %5, align 4
  %10 = load i32, i32* %4, align 4
  %11 = sub nsw i32 %10, 1
  %12 = icmp slt i32 %9, %11
  br i1 %12, label %13, label %60

13:                                               ; preds = %8
  %14 = load i32, i32* %5, align 4
  %15 = add nsw i32 %14, 1
  store i32 %15, i32* %6, align 4
  br label %16

16:                                               ; preds = %53, %13
  %17 = load i32, i32* %6, align 4
  %18 = load i32, i32* %4, align 4
  %19 = icmp slt i32 %17, %18
  br i1 %19, label %20, label %56

20:                                               ; preds = %16
  %21 = load i32*, i32** %3, align 8
  %22 = load i32, i32* %5, align 4
  %23 = sext i32 %22 to i64
  %24 = getelementptr inbounds i32, i32* %21, i64 %23
  %25 = load i32, i32* %24, align 4
  %26 = load i32*, i32** %3, align 8
  %27 = load i32, i32* %6, align 4
  %28 = sext i32 %27 to i64
  %29 = getelementptr inbounds i32, i32* %26, i64 %28
  %30 = load i32, i32* %29, align 4
  %31 = icmp sgt i32 %25, %30
  br i1 %31, label %32, label %52

32:                                               ; preds = %20
  %33 = load i32*, i32** %3, align 8
  %34 = load i32, i32* %5, align 4
  %35 = sext i32 %34 to i64
  %36 = getelementptr inbounds i32, i32* %33, i64 %35
  %37 = load i32, i32* %36, align 4
  store i32 %37, i32* %7, align 4
  %38 = load i32*, i32** %3, align 8
  %39 = load i32, i32* %6, align 4
  %40 = sext i32 %39 to i64
  %41 = getelementptr inbounds i32, i32* %38, i64 %40
  %42 = load i32, i32* %41, align 4
  %43 = load i32*, i32** %3, align 8
  %44 = load i32, i32* %5, align 4
  %45 = sext i32 %44 to i64
  %46 = getelementptr inbounds i32, i32* %43, i64 %45
  store i32 %42, i32* %46, align 4
  %47 = load i32, i32* %7, align 4
  %48 = load i32*, i32** %3, align 8
  %49 = load i32, i32* %6, align 4
  %50 = sext i32 %49 to i64
  %51 = getelementptr inbounds i32, i32* %48, i64 %50
  store i32 %47, i32* %51, align 4
  br label %52

52:                                               ; preds = %32, %20
  br label %53

53:                                               ; preds = %52
  %54 = load i32, i32* %6, align 4
  %55 = add nsw i32 %54, 1
  store i32 %55, i32* %6, align 4
  br label %16

56:                                               ; preds = %16
  br label %57

57:                                               ; preds = %56
  %58 = load i32, i32* %5, align 4
  %59 = add nsw i32 %58, 1
  store i32 %59, i32* %5, align 4
  br label %8

60:                                               ; preds = %8
  ret void
}

; Function Attrs: noinline nounwind uwtable
define dso_local void @hb(i32* %0, i32 %1, i32* %2, i32 %3) #0 {
  %5 = alloca i32*, align 8
  %6 = alloca i32, align 4
  %7 = alloca i32*, align 8
  %8 = alloca i32, align 4
  %9 = alloca [1000 x i32], align 16
  %10 = alloca i32, align 4
  %11 = alloca i32, align 4
  %12 = alloca i32, align 4
  store i32* %0, i32** %5, align 8
  store i32 %1, i32* %6, align 4
  store i32* %2, i32** %7, align 8
  store i32 %3, i32* %8, align 4
  store i32 0, i32* %10, align 4
  br label %13

13:                                               ; preds = %27, %4
  %14 = load i32, i32* %10, align 4
  %15 = load i32, i32* %6, align 4
  %16 = sub nsw i32 %15, 1
  %17 = icmp sle i32 %14, %16
  br i1 %17, label %18, label %30

18:                                               ; preds = %13
  %19 = load i32*, i32** %5, align 8
  %20 = load i32, i32* %10, align 4
  %21 = sext i32 %20 to i64
  %22 = getelementptr inbounds i32, i32* %19, i64 %21
  %23 = load i32, i32* %22, align 4
  %24 = load i32, i32* %10, align 4
  %25 = sext i32 %24 to i64
  %26 = getelementptr inbounds [1000 x i32], [1000 x i32]* %9, i64 0, i64 %25
  store i32 %23, i32* %26, align 4
  br label %27

27:                                               ; preds = %18
  %28 = load i32, i32* %10, align 4
  %29 = add nsw i32 %28, 1
  store i32 %29, i32* %10, align 4
  br label %13

30:                                               ; preds = %13
  %31 = load i32, i32* %6, align 4
  store i32 %31, i32* %11, align 4
  br label %32

32:                                               ; preds = %50, %30
  %33 = load i32, i32* %11, align 4
  %34 = load i32, i32* %6, align 4
  %35 = load i32, i32* %8, align 4
  %36 = add nsw i32 %34, %35
  %37 = sub nsw i32 %36, 1
  %38 = icmp sle i32 %33, %37
  br i1 %38, label %39, label %53

39:                                               ; preds = %32
  %40 = load i32*, i32** %7, align 8
  %41 = load i32, i32* %11, align 4
  %42 = load i32, i32* %6, align 4
  %43 = sub nsw i32 %41, %42
  %44 = sext i32 %43 to i64
  %45 = getelementptr inbounds i32, i32* %40, i64 %44
  %46 = load i32, i32* %45, align 4
  %47 = load i32, i32* %11, align 4
  %48 = sext i32 %47 to i64
  %49 = getelementptr inbounds [1000 x i32], [1000 x i32]* %9, i64 0, i64 %48
  store i32 %46, i32* %49, align 4
  br label %50

50:                                               ; preds = %39
  %51 = load i32, i32* %11, align 4
  %52 = add nsw i32 %51, 1
  store i32 %52, i32* %11, align 4
  br label %32

53:                                               ; preds = %32
  store i32 0, i32* %12, align 4
  br label %54

54:                                               ; preds = %67, %53
  %55 = load i32, i32* %12, align 4
  %56 = load i32, i32* %6, align 4
  %57 = load i32, i32* %8, align 4
  %58 = add nsw i32 %56, %57
  %59 = sub nsw i32 %58, 1
  %60 = icmp slt i32 %55, %59
  br i1 %60, label %61, label %70

61:                                               ; preds = %54
  %62 = load i32, i32* %12, align 4
  %63 = sext i32 %62 to i64
  %64 = getelementptr inbounds [1000 x i32], [1000 x i32]* %9, i64 0, i64 %63
  %65 = load i32, i32* %64, align 4
  %66 = call i32 (i8*, ...) @printf(i8* getelementptr inbounds ([4 x i8], [4 x i8]* @.str, i64 0, i64 0), i32 %65)
  br label %67

67:                                               ; preds = %61
  %68 = load i32, i32* %12, align 4
  %69 = add nsw i32 %68, 1
  store i32 %69, i32* %12, align 4
  br label %54

70:                                               ; preds = %54
  %71 = load i32, i32* %6, align 4
  %72 = load i32, i32* %8, align 4
  %73 = add nsw i32 %71, %72
  %74 = sub nsw i32 %73, 1
  %75 = sext i32 %74 to i64
  %76 = getelementptr inbounds [1000 x i32], [1000 x i32]* %9, i64 0, i64 %75
  %77 = load i32, i32* %76, align 4
  %78 = call i32 (i8*, ...) @printf(i8* getelementptr inbounds ([3 x i8], [3 x i8]* @.str.1, i64 0, i64 0), i32 %77)
  ret void
}

; Function Attrs: noinline nounwind uwtable
define dso_local i32 @main() #0 {
  %1 = alloca i32, align 4
  %2 = alloca i32, align 4
  %3 = alloca i32, align 4
  %4 = alloca i32, align 4
  %5 = alloca i32, align 4
  %6 = alloca [1000 x i32], align 16
  %7 = alloca [1000 x i32], align 16
  store i32 0, i32* %1, align 4
  %8 = call i32 (i8*, ...) @__isoc99_scanf(i8* getelementptr inbounds ([6 x i8], [6 x i8]* @.str.2, i64 0, i64 0), i32* %2, i32* %3)
  store i32 0, i32* %4, align 4
  br label %9

9:                                                ; preds = %19, %0
  %10 = load i32, i32* %4, align 4
  %11 = load i32, i32* %2, align 4
  %12 = sub nsw i32 %11, 1
  %13 = icmp sle i32 %10, %12
  br i1 %13, label %14, label %22

14:                                               ; preds = %9
  %15 = load i32, i32* %4, align 4
  %16 = sext i32 %15 to i64
  %17 = getelementptr inbounds [1000 x i32], [1000 x i32]* %6, i64 0, i64 %16
  %18 = call i32 (i8*, ...) @__isoc99_scanf(i8* getelementptr inbounds ([3 x i8], [3 x i8]* @.str.1, i64 0, i64 0), i32* %17)
  br label %19

19:                                               ; preds = %14
  %20 = load i32, i32* %4, align 4
  %21 = add nsw i32 %20, 1
  store i32 %21, i32* %4, align 4
  br label %9

22:                                               ; preds = %9
  store i32 0, i32* %5, align 4
  br label %23

23:                                               ; preds = %33, %22
  %24 = load i32, i32* %5, align 4
  %25 = load i32, i32* %3, align 4
  %26 = sub nsw i32 %25, 1
  %27 = icmp sle i32 %24, %26
  br i1 %27, label %28, label %36

28:                                               ; preds = %23
  %29 = load i32, i32* %5, align 4
  %30 = sext i32 %29 to i64
  %31 = getelementptr inbounds [1000 x i32], [1000 x i32]* %7, i64 0, i64 %30
  %32 = call i32 (i8*, ...) @__isoc99_scanf(i8* getelementptr inbounds ([3 x i8], [3 x i8]* @.str.1, i64 0, i64 0), i32* %31)
  br label %33

33:                                               ; preds = %28
  %34 = load i32, i32* %5, align 4
  %35 = add nsw i32 %34, 1
  store i32 %35, i32* %5, align 4
  br label %23

36:                                               ; preds = %23
  %37 = getelementptr inbounds [1000 x i32], [1000 x i32]* %6, i64 0, i64 0
  %38 = load i32, i32* %2, align 4
  call void @px(i32* %37, i32 %38)
  %39 = getelementptr inbounds [1000 x i32], [1000 x i32]* %7, i64 0, i64 0
  %40 = load i32, i32* %3, align 4
  call void @px(i32* %39, i32 %40)
  %41 = getelementptr inbounds [1000 x i32], [1000 x i32]* %6, i64 0, i64 0
  %42 = load i32, i32* %2, align 4
  %43 = getelementptr inbounds [1000 x i32], [1000 x i32]* %7, i64 0, i64 0
  %44 = load i32, i32* %3, align 4
  call void @hb(i32* %41, i32 %42, i32* %43, i32 %44)
  ret i32 0
}